target datalayout = "e-m:e-p270:32:32-p271:32:32-p272:64:64-i64:64-i128:128-f80:128-n8:16:32:64-S128"
target triple = "x86_64-pc-linux-gnu"

; Function Attrs: nounwind uwtable
define dso_local ptr @coerce_null_to_domain(i32 noundef %0, i32 noundef %1, i32 noundef %2, i32 noundef %3, i1 noundef zeroext %4) #0 {
  %6 = alloca i32, align 4
  %7 = alloca i32, align 4
  %8 = alloca i32, align 4
  %9 = alloca i32, align 4
  %10 = alloca i8, align 1
  %11 = alloca ptr, align 8
  %12 = alloca i32, align 4
  %13 = alloca i32, align 4
  store i32 %0, ptr %6, align 4
  store i32 %1, ptr %7, align 4
  store i32 %2, ptr %8, align 4
  store i32 %3, ptr %9, align 4
  %14 = zext i1 %4 to i8
  store i8 %14, ptr %10, align 1
  call void @llvm.lifetime.start.p0(i64 8, ptr %11) #6
  call void @llvm.lifetime.start.p0(i64 4, ptr %12) #6
  call void @llvm.lifetime.start.p0(i64 4, ptr %13) #6
  %15 = load i32, ptr %7, align 4
  store i32 %15, ptr %13, align 4
  %16 = load i32, ptr %6, align 4
  %17 = call i32 @getBaseTypeAndTypmod(i32 noundef %16, ptr noundef %13)
  store i32 %17, ptr %12, align 4
  %18 = load i32, ptr %12, align 4
  %19 = load i32, ptr %13, align 4
  %20 = load i32, ptr %8, align 4
  %21 = load i32, ptr %9, align 4
  %22 = load i8, ptr %10, align 1, !range !7, !noundef !8
  %23 = trunc i8 %22 to i1
  %24 = call ptr @makeConst(i32 noundef %18, i32 noundef %19, i32 noundef %20, i32 noundef %21, i64 noundef 0, i1 noundef zeroext true, i1 noundef zeroext %23)
  store ptr %24, ptr %11, align 8
  %25 = load i32, ptr %6, align 4
  %26 = load i32, ptr %12, align 4
  %27 = icmp ne i32 %25, %26
  br i1 %27, label %28, label %34

28:                                               ; preds = %5
  %29 = load ptr, ptr %11, align 8
  %30 = load i32, ptr %12, align 4
  %31 = load i32, ptr %13, align 4
  %32 = load i32, ptr %6, align 4
  %33 = call ptr @coerce_to_domain(ptr noundef %29, i32 noundef %30, i32 noundef %31, i32 noundef %32, i32 noundef 0, i32 noundef 2, i32 noundef -1, i1 noundef zeroext false)
  store ptr %33, ptr %11, align 8
  br label %34

34:                                               ; preds = %28, %5
  %35 = load ptr, ptr %11, align 8
  call void @llvm.lifetime.end.p0(i64 4, ptr %13) #6
  call void @llvm.lifetime.end.p0(i64 4, ptr %12) #6
  call void @llvm.lifetime.end.p0(i64 8, ptr %11) #6
  ret ptr %35
}