; Function Attrs: nounwind uwtable
define dso_local ptr @coerce_null_to_domain(i32 noundef %0, i32 noundef %1, i32 noundef %2, i32 noundef %3, i1 noundef zeroext %4) local_unnamed_addr #0 {
  %6 = alloca i32, align 4
  call void @llvm.lifetime.start.p0(i64 4, ptr nonnull %6) #5
  store i32 %1, ptr %6, align 4
  %7 = call i32 @getBaseTypeAndTypmod(i32 noundef %0, ptr noundef nonnull %6) #5
  %8 = load i32, ptr %6, align 4
  %9 = call ptr @makeConst(i32 noundef %7, i32 noundef %8, i32 noundef %2, i32 noundef %3, i64 noundef 0, i1 noundef zeroext true, i1 noundef zeroext %4) #5
  %.not = icmp eq i32 %0, %7
  br i1 %.not, label %13, label %10

10:                                               ; preds = %5
  %11 = load i32, ptr %6, align 4
  %12 = call ptr @coerce_to_domain(ptr noundef %9, i32 noundef %7, i32 noundef %11, i32 noundef %0, i32 noundef 0, i32 noundef 2, i32 noundef -1, i1 noundef zeroext false)
  br label %13

13:                                               ; preds = %10, %5
  %.0 = phi ptr [ %12, %10 ], [ %9, %5 ]
  call void @llvm.lifetime.end.p0(i64 4, ptr nonnull %6) #5
  ret ptr %.0
}